target datalayout = "e-m:e-p270:32:32-p271:32:32-p272:64:64-i64:64-i128:128-f80:128-n8:16:32:64-S128"
target triple = "x86_64-pc-linux-gnu"

%struct.VLCcode = type { i8, i16, i32 }
%struct.VLC = type { i32, ptr, i32, i32 }

@.str = private unnamed_addr constant [30 x i8] c"Assertion %s failed at %s:%d\0A\00", align 1
@.str.2 = private unnamed_addr constant [17 x i8] c"libavcodec/vlc.c\00", align 1
@.str.5 = private unnamed_addr constant [25 x i8] c"Invalid VLC (length %u)\0A\00", align 1
@.str.6 = private unnamed_addr constant [25 x i8] c"Overdetermined VLC tree\0A\00", align 1
@.str.7 = private unnamed_addr constant [17 x i8] c"nb_codes <= 1500\00", align 1

; Function Attrs: nounwind uwtable
define internal i32 @vlc_common_init(ptr noundef %0, i32 noundef %1, i32 noundef %2, ptr noundef %3, i32 noundef %4) #0 {
  %6 = alloca i32, align 4
  %7 = alloca ptr, align 8
  %8 = alloca i32, align 4
  %9 = alloca i32, align 4
  %10 = alloca ptr, align 8
  %11 = alloca i32, align 4
  store ptr %0, ptr %7, align 8, !tbaa !4
  store i32 %1, ptr %8, align 4, !tbaa !9
  store i32 %2, ptr %9, align 4, !tbaa !9
  store ptr %3, ptr %10, align 8, !tbaa !33
  store i32 %4, ptr %11, align 4, !tbaa !9
  %12 = load i32, ptr %8, align 4, !tbaa !9
  %13 = load ptr, ptr %7, align 8, !tbaa !4
  %14 = getelementptr inbounds nuw %struct.VLC, ptr %13, i32 0, i32 0
  store i32 %12, ptr %14, align 8, !tbaa !36
  %15 = load ptr, ptr %7, align 8, !tbaa !4
  %16 = getelementptr inbounds nuw %struct.VLC, ptr %15, i32 0, i32 2
  store i32 0, ptr %16, align 8, !tbaa !39
  %17 = load i32, ptr %11, align 4, !tbaa !9
  %18 = and i32 %17, 1
  %19 = icmp ne i32 %18, 0
  br i1 %19, label %20, label %27

20:                                               ; preds = %5
  br label %21

21:                                               ; preds = %20
  %22 = load i32, ptr %9, align 4, !tbaa !9
  %23 = icmp sle i32 %22, 1500
  br i1 %23, label %25, label %24

24:                                               ; preds = %21
  call void (ptr, i32, ptr, ...) @av_log(ptr noundef null, i32 noundef 0, ptr noundef @.str, ptr noundef @.str.7, ptr noundef @.str.2, i32 noundef 104)
  call void @abort() #9
  unreachable

25:                                               ; preds = %21
  br label %26

26:                                               ; preds = %25
  br label %32

27:                                               ; preds = %5
  %28 = load ptr, ptr %7, align 8, !tbaa !4
  %29 = getelementptr inbounds nuw %struct.VLC, ptr %28, i32 0, i32 1
  store ptr null, ptr %29, align 8, !tbaa !40
  %30 = load ptr, ptr %7, align 8, !tbaa !4
  %31 = getelementptr inbounds nuw %struct.VLC, ptr %30, i32 0, i32 3
  store i32 0, ptr %31, align 4, !tbaa !41
  br label %32

32:                                               ; preds = %27, %26
  %33 = load i32, ptr %9, align 4, !tbaa !9
  %34 = icmp sgt i32 %33, 1500
  br i1 %34, label %35, label %45

35:                                               ; preds = %32
  %36 = load i32, ptr %9, align 4, !tbaa !9
  %37 = sext i32 %36 to i64
  %38 = call ptr @av_malloc_array(i64 noundef %37, i64 noundef 8)
  %39 = load ptr, ptr %10, align 8, !tbaa !33
  store ptr %38, ptr %39, align 8, !tbaa !12
  %40 = load ptr, ptr %10, align 8, !tbaa !33
  %41 = load ptr, ptr %40, align 8, !tbaa !12
  %42 = icmp ne ptr %41, null
  br i1 %42, label %44, label %43

43:                                               ; preds = %35
  store i32 -12, ptr %6, align 4
  br label %46

44:                                               ; preds = %35
  br label %45

45:                                               ; preds = %44, %32
  store i32 0, ptr %6, align 4
  br label %46

46:                                               ; preds = %45, %43
  %47 = load i32, ptr %6, align 4
  ret i32 %47
}

; Function Attrs: nounwind uwtable
define i32 @ff_vlc_init_from_lengths(ptr noundef %0, i32 noundef %1, i32 noundef %2, ptr noundef %3, i32 noundef %4, ptr noundef %5, i32 noundef %6, i32 noundef %7, i32 noundef %8, i32 noundef %9, ptr noundef %10) #0 {
  %12 = alloca i32, align 4
  %13 = alloca ptr, align 8
  %14 = alloca i32, align 4
  %15 = alloca i32, align 4
  %16 = alloca ptr, align 8
  %17 = alloca i32, align 4
  %18 = alloca ptr, align 8
  %19 = alloca i32, align 4
  %20 = alloca i32, align 4
  %21 = alloca i32, align 4
  %22 = alloca i32, align 4
  %23 = alloca ptr, align 8
  %24 = alloca [1500 x %struct.VLCcode], align 16
  %25 = alloca ptr, align 8
  %26 = alloca i64, align 8
  %27 = alloca i32, align 4
  %28 = alloca i32, align 4
  %29 = alloca i32, align 4
  %30 = alloca i32, align 4
  %31 = alloca i32, align 4
  %32 = alloca i32, align 4
  %33 = alloca i32, align 4
  %34 = alloca ptr, align 8
  store ptr %0, ptr %13, align 8, !tbaa !4
  store i32 %1, ptr %14, align 4, !tbaa !9
  store i32 %2, ptr %15, align 4, !tbaa !9
  store ptr %3, ptr %16, align 8, !tbaa !14
  store i32 %4, ptr %17, align 4, !tbaa !9
  store ptr %5, ptr %18, align 8, !tbaa !11
  store i32 %6, ptr %19, align 4, !tbaa !9
  store i32 %7, ptr %20, align 4, !tbaa !9
  store i32 %8, ptr %21, align 4, !tbaa !9
  store i32 %9, ptr %22, align 4, !tbaa !9
  store ptr %10, ptr %23, align 8, !tbaa !11
  call void @llvm.lifetime.start.p0(i64 12000, ptr %24) #8
  call void @llvm.lifetime.start.p0(i64 8, ptr %25) #8
  %35 = getelementptr inbounds [1500 x %struct.VLCcode], ptr %24, i64 0, i64 0
  store ptr %35, ptr %25, align 8, !tbaa !12
  call void @llvm.lifetime.start.p0(i64 8, ptr %26) #8
  call void @llvm.lifetime.start.p0(i64 4, ptr %27) #8
  call void @llvm.lifetime.start.p0(i64 4, ptr %28) #8
  call void @llvm.lifetime.start.p0(i64 4, ptr %29) #8
  %36 = load i32, ptr %14, align 4, !tbaa !9
  %37 = mul nsw i32 3, %36
  %38 = icmp sgt i32 32, %37
  br i1 %38, label %39, label %42

39:                                               ; preds = %11
  %40 = load i32, ptr %14, align 4, !tbaa !9
  %41 = mul nsw i32 3, %40
  br label %43

42:                                               ; preds = %11
  br label %43

43:                                               ; preds = %42, %39
  %44 = phi i32 [ %41, %39 ], [ 32, %42 ]
  store i32 %44, ptr %29, align 4, !tbaa !9
  %45 = load ptr, ptr %13, align 8, !tbaa !4
  %46 = load i32, ptr %14, align 4, !tbaa !9
  %47 = load i32, ptr %15, align 4, !tbaa !9
  %48 = load i32, ptr %22, align 4, !tbaa !9
  %49 = call i32 @vlc_common_init(ptr noundef %45, i32 noundef %46, i32 noundef %47, ptr noundef %25, i32 noundef %48)
  store i32 %49, ptr %27, align 4, !tbaa !9
  %50 = load i32, ptr %27, align 4, !tbaa !9
  %51 = icmp slt i32 %50, 0
  br i1 %51, label %52, label %54

52:                                               ; preds = %43
  %53 = load i32, ptr %27, align 4, !tbaa !9
  store i32 %53, ptr %12, align 4
  store i32 1, ptr %30, align 4
  br label %180

54:                                               ; preds = %43
  store i64 0, ptr %26, align 8, !tbaa !42
  store i32 0, ptr %28, align 4, !tbaa !9
  call void @llvm.lifetime.start.p0(i64 4, ptr %31) #8
  store i32 0, ptr %31, align 4, !tbaa !9
  br label %55

55:                                               ; preds = %156, %54
  %56 = load i32, ptr %31, align 4, !tbaa !9
  %57 = load i32, ptr %15, align 4, !tbaa !9
  %58 = icmp slt i32 %56, %57
  br i1 %58, label %60, label %59

59:                                               ; preds = %55
  store i32 2, ptr %30, align 4
  br label %163

60:                                               ; preds = %55
  call void @llvm.lifetime.start.p0(i64 4, ptr %32) #8
  %61 = load ptr, ptr %16, align 8, !tbaa !14
  %62 = load i8, ptr %61, align 1, !tbaa !16
  %63 = sext i8 %62 to i32
  store i32 %63, ptr %32, align 4, !tbaa !9
  %64 = load i32, ptr %32, align 4, !tbaa !9
  %65 = icmp sgt i32 %64, 0
  br i1 %65, label %66, label %117

66:                                               ; preds = %60
  call void @llvm.lifetime.start.p0(i64 4, ptr %33) #8
  %67 = load i32, ptr %32, align 4, !tbaa !9
  %68 = trunc i32 %67 to i8
  %69 = load ptr, ptr %25, align 8, !tbaa !12
  %70 = load i32, ptr %28, align 4, !tbaa !9
  %71 = sext i32 %70 to i64
  %72 = getelementptr inbounds %struct.VLCcode, ptr %69, i64 %71
  %73 = getelementptr inbounds nuw %struct.VLCcode, ptr %72, i32 0, i32 0
  store i8 %68, ptr %73, align 4, !tbaa !19
  %74 = load ptr, ptr %18, align 8, !tbaa !11
  %75 = icmp ne ptr %74, null
  br i1 %75, label %76, label %97

76:                                               ; preds = %66
  call void @llvm.lifetime.start.p0(i64 8, ptr %34) #8
  %77 = load ptr, ptr %18, align 8, !tbaa !11
  %78 = load i32, ptr %31, align 4, !tbaa !9
  %79 = load i32, ptr %19, align 4, !tbaa !9
  %80 = mul nsw i32 %78, %79
  %81 = sext i32 %80 to i64
  %82 = getelementptr inbounds i8, ptr %77, i64 %81
  store ptr %82, ptr %34, align 8, !tbaa !14
  %83 = load i32, ptr %20, align 4, !tbaa !9
  switch i32 %83, label %93 [
    i32 1, label %84
    i32 2, label %88
    i32 4, label %92
  ]

84:                                               ; preds = %76
  %85 = load ptr, ptr %34, align 8, !tbaa !14
  %86 = load i8, ptr %85, align 1, !tbaa !16
  %87 = zext i8 %86 to i32
  store i32 %87, ptr %33, align 4, !tbaa !9
  br label %96

88:                                               ; preds = %76
  %89 = load ptr, ptr %34, align 8, !tbaa !14
  %90 = load i16, ptr %89, align 2, !tbaa !17
  %91 = zext i16 %90 to i32
  store i32 %91, ptr %33, align 4, !tbaa !9
  br label %96

92:                                               ; preds = %76
  br label %93

93:                                               ; preds = %76, %92
  %94 = load ptr, ptr %34, align 8, !tbaa !14
  %95 = load i32, ptr %94, align 4, !tbaa !9
  store i32 %95, ptr %33, align 4, !tbaa !9
  br label %96

96:                                               ; preds = %93, %88, %84
  call void @llvm.lifetime.end.p0(i64 8, ptr %34) #8
  br label %99

97:                                               ; preds = %66
  %98 = load i32, ptr %31, align 4, !tbaa !9
  store i32 %98, ptr %33, align 4, !tbaa !9
  br label %99

99:                                               ; preds = %97, %96
  %100 = load i32, ptr %33, align 4, !tbaa !9
  %101 = load i32, ptr %21, align 4, !tbaa !9
  %102 = add i32 %100, %101
  %103 = trunc i32 %102 to i16
  %104 = load ptr, ptr %25, align 8, !tbaa !12
  %105 = load i32, ptr %28, align 4, !tbaa !9
  %106 = sext i32 %105 to i64
  %107 = getelementptr inbounds %struct.VLCcode, ptr %104, i64 %106
  %108 = getelementptr inbounds nuw %struct.VLCcode, ptr %107, i32 0, i32 1
  store i16 %103, ptr %108, align 2, !tbaa !22
  %109 = load i64, ptr %26, align 8, !tbaa !42
  %110 = trunc i64 %109 to i32
  %111 = load ptr, ptr %25, align 8, !tbaa !12
  %112 = load i32, ptr %28, align 4, !tbaa !9
  %113 = add nsw i32 %112, 1
  store i32 %113, ptr %28, align 4, !tbaa !9
  %114 = sext i32 %112 to i64
  %115 = getelementptr inbounds %struct.VLCcode, ptr %111, i64 %114
  %116 = getelementptr inbounds nuw %struct.VLCcode, ptr %115, i32 0, i32 2
  store i32 %110, ptr %116, align 4, !tbaa !21
  call void @llvm.lifetime.end.p0(i64 4, ptr %33) #8
  br label %125

117:                                              ; preds = %60
  %118 = load i32, ptr %32, align 4, !tbaa !9
  %119 = icmp slt i32 %118, 0
  br i1 %119, label %120, label %123

120:                                              ; preds = %117
  %121 = load i32, ptr %32, align 4, !tbaa !9
  %122 = sub nsw i32 0, %121
  store i32 %122, ptr %32, align 4, !tbaa !9
  br label %124

123:                                              ; preds = %117
  store i32 4, ptr %30, align 4
  br label %153

124:                                              ; preds = %120
  br label %125

125:                                              ; preds = %124, %99
  %126 = load i32, ptr %32, align 4, !tbaa !9
  %127 = load i32, ptr %29, align 4, !tbaa !9
  %128 = icmp sgt i32 %126, %127
  br i1 %128, label %138, label %129

129:                                              ; preds = %125
  %130 = load i64, ptr %26, align 8, !tbaa !42
  %131 = load i32, ptr %32, align 4, !tbaa !9
  %132 = sub nsw i32 32, %131
  %133 = shl i32 1, %132
  %134 = sub i32 %133, 1
  %135 = zext i32 %134 to i64
  %136 = and i64 %130, %135
  %137 = icmp ne i64 %136, 0
  br i1 %137, label %138, label %141

138:                                              ; preds = %129, %125
  %139 = load ptr, ptr %23, align 8, !tbaa !11
  %140 = load i32, ptr %32, align 4, !tbaa !9
  call void (ptr, i32, ptr, ...) @av_log(ptr noundef %139, i32 noundef 16, ptr noundef @.str.5, i32 noundef %140)
  store i32 6, ptr %30, align 4
  br label %153

141:                                              ; preds = %129
  %142 = load i32, ptr %32, align 4, !tbaa !9
  %143 = sub nsw i32 32, %142
  %144 = shl i32 1, %143
  %145 = zext i32 %144 to i64
  %146 = load i64, ptr %26, align 8, !tbaa !42
  %147 = add i64 %146, %145
  store i64 %147, ptr %26, align 8, !tbaa !42
  %148 = load i64, ptr %26, align 8, !tbaa !42
  %149 = icmp ugt i64 %148, 4294967296
  br i1 %149, label %150, label %152

150:                                              ; preds = %141
  %151 = load ptr, ptr %23, align 8, !tbaa !11
  call void (ptr, i32, ptr, ...) @av_log(ptr noundef %151, i32 noundef 16, ptr noundef @.str.6)
  store i32 6, ptr %30, align 4
  br label %153

152:                                              ; preds = %141
  store i32 0, ptr %30, align 4
  br label %153

153:                                              ; preds = %150, %138, %152, %123
  call void @llvm.lifetime.end.p0(i64 4, ptr %32) #8
  %154 = load i32, ptr %30, align 4
  switch i32 %154, label %163 [
    i32 0, label %155
    i32 4, label %156
  ]

155:                                              ; preds = %153
  br label %156

156:                                              ; preds = %155, %153
  %157 = load i32, ptr %31, align 4, !tbaa !9
  %158 = add nsw i32 %157, 1
  store i32 %158, ptr %31, align 4, !tbaa !9
  %159 = load i32, ptr %17, align 4, !tbaa !9
  %160 = load ptr, ptr %16, align 8, !tbaa !14
  %161 = sext i32 %159 to i64
  %162 = getelementptr inbounds i8, ptr %160, i64 %161
  store ptr %162, ptr %16, align 8, !tbaa !14
  br label %55, !llvm.loop !44

163:                                              ; preds = %153, %59
  call void @llvm.lifetime.end.p0(i64 4, ptr %31) #8
  %164 = load i32, ptr %30, align 4
  switch i32 %164, label %180 [
    i32 2, label %165
    i32 6, label %173
  ]

165:                                              ; preds = %163
  %166 = load ptr, ptr %13, align 8, !tbaa !4
  %167 = load i32, ptr %14, align 4, !tbaa !9
  %168 = load i32, ptr %28, align 4, !tbaa !9
  %169 = load ptr, ptr %25, align 8, !tbaa !12
  %170 = load i32, ptr %22, align 4, !tbaa !9
  %171 = getelementptr inbounds [1500 x %struct.VLCcode], ptr %24, i64 0, i64 0
  %172 = call i32 @vlc_common_end(ptr noundef %166, i32 noundef %167, i32 noundef %168, ptr noundef %169, i32 noundef %170, ptr noundef %171)
  store i32 %172, ptr %12, align 4
  store i32 1, ptr %30, align 4
  br label %180

173:                                              ; preds = %163
  %174 = load ptr, ptr %25, align 8, !tbaa !12
  %175 = getelementptr inbounds [1500 x %struct.VLCcode], ptr %24, i64 0, i64 0
  %176 = icmp ne ptr %174, %175
  br i1 %176, label %177, label %179

177:                                              ; preds = %173
  %178 = load ptr, ptr %25, align 8, !tbaa !12
  call void @av_free(ptr noundef %178)
  br label %179

179:                                              ; preds = %177, %173
  store i32 -1094995529, ptr %12, align 4
  store i32 1, ptr %30, align 4
  br label %180

180:                                              ; preds = %179, %165, %163, %52
  call void @llvm.lifetime.end.p0(i64 4, ptr %29) #8
  call void @llvm.lifetime.end.p0(i64 4, ptr %28) #8
  call void @llvm.lifetime.end.p0(i64 4, ptr %27) #8
  call void @llvm.lifetime.end.p0(i64 8, ptr %26) #8
  call void @llvm.lifetime.end.p0(i64 8, ptr %25) #8
  call void @llvm.lifetime.end.p0(i64 12000, ptr %24) #8
  %181 = load i32, ptr %12, align 4
  ret i32 %181
}