; Function Attrs: nounwind uwtable
define range(i32 -2147483648, 1) i32 @ff_vlc_init_from_lengths(ptr noundef initializes((0, 4), (16, 20)) %0, i32 noundef %1, i32 noundef %2, ptr noundef readonly captures(none) %3, i32 noundef %4, ptr noundef readonly captures(address_is_null) %5, i32 noundef %6, i32 noundef %7, i32 noundef %8, i32 noundef %9, ptr noundef %10) local_unnamed_addr #0 {
  %12 = alloca [1500 x %struct.VLCcode], align 16
  call void @llvm.lifetime.start.p0(i64 12000, ptr nonnull %12) #8
  %13 = mul nsw i32 %1, 3
  %14 = tail call i32 @llvm.smin.i32(i32 %13, i32 32)
  store i32 %1, ptr %0, align 8, !tbaa !4
  %15 = getelementptr inbounds nuw i8, ptr %0, i64 16
  store i32 0, ptr %15, align 8, !tbaa !11
  %16 = and i32 %9, 1
  %.not.i = icmp eq i32 %16, 0
  br i1 %.not.i, label %20, label %17

17:                                               ; preds = %11
  %18 = icmp slt i32 %2, 1501
  br i1 %18, label %vlc_common_init.exit, label %19

19:                                               ; preds = %17
  tail call void (ptr, i32, ptr, ...) @av_log(ptr noundef null, i32 noundef 0, ptr noundef nonnull @.str, ptr noundef nonnull @.str.7, ptr noundef nonnull @.str.2, i32 noundef 104) #8
  tail call void @abort() #9
  unreachable

20:                                               ; preds = %11
  %21 = getelementptr inbounds nuw i8, ptr %0, i64 8
  store ptr null, ptr %21, align 8, !tbaa !12
  %22 = getelementptr inbounds nuw i8, ptr %0, i64 20
  store i32 0, ptr %22, align 4, !tbaa !13
  %23 = icmp sgt i32 %2, 1500
  br i1 %23, label %24, label %vlc_common_init.exit

24:                                               ; preds = %20
  %25 = zext nneg i32 %2 to i64
  %26 = tail call ptr @av_malloc_array(i64 noundef %25, i64 noundef 8) #8
  %.not12.i = icmp eq ptr %26, null
  br i1 %.not12.i, label %vlc_common_init.exit.thread, label %.lr.ph

vlc_common_init.exit:                             ; preds = %17, %20
  %27 = icmp sgt i32 %2, 0
  br i1 %27, label %.lr.ph, label %._crit_edge

.lr.ph:                                           ; preds = %24, %vlc_common_init.exit
  %.172103 = phi ptr [ %12, %vlc_common_init.exit ], [ %26, %24 ]
  %.not = icmp eq ptr %5, null
  %28 = sext i32 %4 to i64
  br i1 %.not, label %.lr.ph.split.us, label %.lr.ph.split.preheader

.lr.ph.split.preheader:                           ; preds = %.lr.ph
  %29 = sext i32 %6 to i64
  %wide.trip.count = zext nneg i32 %2 to i64
  br label %.lr.ph.split

.lr.ph.split.us:                                  ; preds = %.lr.ph, %58
  %.05188.us = phi i32 [ %59, %58 ], [ 0, %.lr.ph ]
  %.05487.us = phi ptr [ %60, %58 ], [ %3, %.lr.ph ]
  %.05586.us = phi i32 [ %.3.us, %58 ], [ 0, %.lr.ph ]
  %.05785.us = phi i64 [ %.158.us, %58 ], [ 0, %.lr.ph ]
  %30 = load i8, ptr %.05487.us, align 1, !tbaa !14
  %31 = sext i8 %30 to i32
  %32 = icmp sgt i8 %30, 0
  br i1 %32, label %37, label %33

33:                                               ; preds = %.lr.ph.split.us
  %34 = icmp slt i8 %30, 0
  br i1 %34, label %35, label %58

35:                                               ; preds = %33
  %36 = sub nsw i32 0, %31
  br label %46

37:                                               ; preds = %.lr.ph.split.us
  %38 = sext i32 %.05586.us to i64
  %39 = getelementptr inbounds %struct.VLCcode, ptr %.172103, i64 %38
  store i8 %30, ptr %39, align 4, !tbaa !18
  %40 = add i32 %.05188.us, %8
  %41 = trunc i32 %40 to i16
  %42 = getelementptr inbounds %struct.VLCcode, ptr %.172103, i64 %38, i32 1
  store i16 %41, ptr %42, align 2, !tbaa !21
  %43 = trunc i64 %.05785.us to i32
  %44 = add nsw i32 %.05586.us, 1
  %45 = getelementptr inbounds %struct.VLCcode, ptr %.172103, i64 %38, i32 2
  store i32 %43, ptr %45, align 4, !tbaa !20
  br label %46

46:                                               ; preds = %37, %35
  %.2.us = phi i32 [ %44, %37 ], [ %.05586.us, %35 ]
  %.050.us = phi i32 [ %31, %37 ], [ %36, %35 ]
  %47 = icmp sgt i32 %.050.us, %14
  br i1 %47, label %.split.us, label %48

48:                                               ; preds = %46
  %49 = sub nsw i32 32, %.050.us
  %50 = shl nuw i32 1, %49
  %51 = add i32 %50, -1
  %52 = zext nneg i32 %51 to i64
  %53 = and i64 %.05785.us, %52
  %.not66.us = icmp eq i64 %53, 0
  br i1 %.not66.us, label %54, label %.split.us

54:                                               ; preds = %48
  %55 = zext i32 %50 to i64
  %56 = add nuw nsw i64 %.05785.us, %55
  %57 = icmp samesign ugt i64 %56, 4294967296
  br i1 %57, label %.split92.us, label %58

58:                                               ; preds = %54, %33
  %.158.us = phi i64 [ %.05785.us, %33 ], [ %56, %54 ]
  %.3.us = phi i32 [ %.05586.us, %33 ], [ %.2.us, %54 ]
  %59 = add nuw nsw i32 %.05188.us, 1
  %60 = getelementptr inbounds i8, ptr %.05487.us, i64 %28
  %exitcond100.not = icmp eq i32 %59, %2
  br i1 %exitcond100.not, label %._crit_edge, label %.lr.ph.split.us, !llvm.loop !31

.lr.ph.split:                                     ; preds = %.lr.ph.split.preheader, %100
  %indvars.iv = phi i64 [ 0, %.lr.ph.split.preheader ], [ %indvars.iv.next, %100 ]
  %.05487 = phi ptr [ %3, %.lr.ph.split.preheader ], [ %101, %100 ]
  %.05586 = phi i32 [ 0, %.lr.ph.split.preheader ], [ %.3, %100 ]
  %.05785 = phi i64 [ 0, %.lr.ph.split.preheader ], [ %.158, %100 ]
  %61 = load i8, ptr %.05487, align 1, !tbaa !14
  %62 = sext i8 %61 to i32
  %63 = icmp sgt i8 %61, 0
  br i1 %63, label %64, label %84

64:                                               ; preds = %.lr.ph.split
  %65 = sext i32 %.05586 to i64
  %66 = getelementptr inbounds %struct.VLCcode, ptr %.172103, i64 %65
  store i8 %61, ptr %66, align 4, !tbaa !18
  %67 = mul nsw i64 %indvars.iv, %29
  %68 = getelementptr inbounds i8, ptr %5, i64 %67
  switch i32 %7, label %75 [
    i32 1, label %69
    i32 2, label %72
  ]

69:                                               ; preds = %64
  %70 = load i8, ptr %68, align 1, !tbaa !14
  %71 = zext i8 %70 to i32
  br label %77

72:                                               ; preds = %64
  %73 = load i16, ptr %68, align 2, !tbaa !15
  %74 = zext i16 %73 to i32
  br label %77

75:                                               ; preds = %64
  %76 = load i32, ptr %68, align 4, !tbaa !17
  br label %77

77:                                               ; preds = %69, %72, %75
  %.1 = phi i32 [ %76, %75 ], [ %74, %72 ], [ %71, %69 ]
  %78 = add i32 %.1, %8
  %79 = trunc i32 %78 to i16
  %80 = getelementptr inbounds %struct.VLCcode, ptr %.172103, i64 %65, i32 1
  store i16 %79, ptr %80, align 2, !tbaa !21
  %81 = trunc i64 %.05785 to i32
  %82 = add nsw i32 %.05586, 1
  %83 = getelementptr inbounds %struct.VLCcode, ptr %.172103, i64 %65, i32 2
  store i32 %81, ptr %83, align 4, !tbaa !20
  br label %88

84:                                               ; preds = %.lr.ph.split
  %85 = icmp slt i8 %61, 0
  br i1 %85, label %86, label %100

86:                                               ; preds = %84
  %87 = sub nsw i32 0, %62
  br label %88

88:                                               ; preds = %86, %77
  %.2 = phi i32 [ %82, %77 ], [ %.05586, %86 ]
  %.050 = phi i32 [ %62, %77 ], [ %87, %86 ]
  %89 = icmp sgt i32 %.050, %14
  br i1 %89, label %.split.us, label %90

90:                                               ; preds = %88
  %91 = sub nsw i32 32, %.050
  %92 = shl nuw i32 1, %91
  %93 = add i32 %92, -1
  %94 = zext nneg i32 %93 to i64
  %95 = and i64 %.05785, %94
  %.not66 = icmp eq i64 %95, 0
  br i1 %.not66, label %96, label %.split.us

.split.us:                                        ; preds = %88, %90, %46, %48
  %.us-phi = phi i32 [ %.050.us, %48 ], [ %.050.us, %46 ], [ %.050, %90 ], [ %.050, %88 ]
  tail call void (ptr, i32, ptr, ...) @av_log(ptr noundef %10, i32 noundef 16, ptr noundef nonnull @.str.5, i32 noundef %.us-phi) #8
  br label %103

96:                                               ; preds = %90
  %97 = zext i32 %92 to i64
  %98 = add nuw nsw i64 %.05785, %97
  %99 = icmp samesign ugt i64 %98, 4294967296
  br i1 %99, label %.split92.us, label %100

.split92.us:                                      ; preds = %96, %54
  tail call void (ptr, i32, ptr, ...) @av_log(ptr noundef %10, i32 noundef 16, ptr noundef nonnull @.str.6) #8
  br label %103

100:                                              ; preds = %84, %96
  %.158 = phi i64 [ %.05785, %84 ], [ %98, %96 ]
  %.3 = phi i32 [ %.05586, %84 ], [ %.2, %96 ]
  %indvars.iv.next = add nuw nsw i64 %indvars.iv, 1
  %101 = getelementptr inbounds i8, ptr %.05487, i64 %28
  %exitcond.not = icmp eq i64 %indvars.iv.next, %wide.trip.count
  br i1 %exitcond.not, label %._crit_edge, label %.lr.ph.split, !llvm.loop !31

._crit_edge:                                      ; preds = %100, %58, %vlc_common_init.exit
  %.172106 = phi ptr [ %12, %vlc_common_init.exit ], [ %.172103, %58 ], [ %.172103, %100 ]
  %.055.lcssa = phi i32 [ 0, %vlc_common_init.exit ], [ %.3.us, %58 ], [ %.3, %100 ]
  %102 = call fastcc i32 @vlc_common_end(ptr noundef nonnull %0, i32 noundef %1, i32 noundef %.055.lcssa, ptr noundef nonnull %.172106, i32 noundef %9, ptr noundef nonnull %12)
  br label %vlc_common_init.exit.thread

103:                                              ; preds = %.split92.us, %.split.us
  %.not67 = icmp eq ptr %.172103, %12
  br i1 %.not67, label %vlc_common_init.exit.thread, label %104

104:                                              ; preds = %103
  call void @av_free(ptr noundef nonnull %.172103) #8
  br label %vlc_common_init.exit.thread

vlc_common_init.exit.thread:                      ; preds = %24, %103, %104, %._crit_edge
  %.0 = phi i32 [ %102, %._crit_edge ], [ -1094995529, %104 ], [ -1094995529, %103 ], [ -12, %24 ]
  call void @llvm.lifetime.end.p0(i64 12000, ptr nonnull %12) #8
  ret i32 %.0
}